(dp0
S'nickmullen'
p1
L759475600096653317L
sS'philgreaves01'
p2
L759475836026257408L
sS'powerful_ceo'
p3
L759480054334230528L
sS'algiordano'
p4
L759490175697203200L
sS'powlerbare'
p5
L759456759987658752L
sS'duncanstein'
p6
L759369039084916736L
sS'malwaexpress'
p7
L759486671763013632L
sS'justin__bebis'
p8
L759448424982974464L
sS'kibblesmith'
p9
L759463451681034240L
sS'fucktardidiot'
p10
L759437551853826048L
s.